Certificate:
    Data:
        Version: 3 (0x2)
        Serial Number:
            62:04:62:d8:fe:87:2c:ad:c8:b4:7b:fd:0e:84:75:b9:71:a2:fb:d6
        Signature Algorithm: sha256WithRSAEncryption
        Issuer: C=BR, ST=Distrito Federal, L=Brasilia
        Validity
            Not Before: Dec 30 21:01:38 2025 GMT
            Not After : Dec 30 21:01:38 2026 GMT
        Subject: CN=teste.brb.com.br
        Subject Public Key Info:
            Public Key Algorithm: rsaEncryption
                Public-Key: (2048 bit)
                Modulus:
                    00:8e:98:df:9b:b2:29:88:2a:c8:26:81:07:7a:80:
                    5f:56:b9:46:f9:52:c9:12:3c:38:2f:53:90:a1:f7:
                    77:9d:d0:6c:e3:9c:41:bb:c2:b7:c2:1f:8e:ce:4e:
                    98:37:63:3f:78:bc:6e:89:13:c6:80:fe:da:d6:8f:
                    aa:bf:3a:21:9d:a1:d6:9f:73:8f:b8:54:75:b2:45:
                    71:21:53:c8:86:40:21:58:3c:05:67:05:39:d7:28:
                    39:08:0b:28:aa:fa:04:bf:31:72:4f:e1:69:10:0e:
                    2a:7e:74:4d:f3:8c:fc:6c:3d:b1:08:92:f9:07:17:
                    a0:4d:03:08:ec:41:8d:de:46:4b:27:e8:91:3b:a1:
                    96:f2:9a:94:96:60:df:7c:38:42:3a:93:80:54:63:
                    ca:7b:25:2e:81:2e:92:75:22:51:fc:a7:a0:8b:51:
                    c7:30:95:1a:bd:cd:cd:a6:dd:25:2a:b9:98:15:10:
                    98:38:98:26:7d:30:1d:b6:80:39:6b:1b:25:f6:49:
                    77:ea:62:83:67:da:b7:ed:e4:51:33:16:8d:fe:0c:
                    92:3e:44:72:7e:37:92:12:67:d1:ab:63:2d:f5:9e:
                    5d:af:ec:4b:33:6e:03:42:95:66:17:2f:8c:69:ee:
                    f0:59:e3:f3:f2:a8:ee:46:f8:fd:56:5b:80:9d:11:
                    d3:b9
                Exponent: 65537 (0x10001)
        X509v3 extensions:
            X509v3 Basic Constraints: 
                CA:FALSE
            X509v3 Subject Key Identifier: 
                E3:AB:91:CA:47:20:70:93:5B:D3:C8:D3:64:E6:E8:C7:1C:DF:5F:70
            X509v3 Key Usage: 
                Digital Signature, Non Repudiation, Key Encipherment
            X509v3 Extended Key Usage: 
                TLS Web Client Authentication
            X509v3 Subject Alternative Name: 
                DNS:teste.brb.com.br, DNS:www.teste.brb.com.br
            X509v3 Authority Key Identifier: 
                CE:C3:E6:C4:FD:C4:38:A8:45:B8:B4:2E:88:9B:BA:94:69:D0:BC:82
    Signature Algorithm: sha256WithRSAEncryption
    Signature Value:
        92:b9:1c:43:5b:cd:1c:cd:25:08:ec:6d:fe:be:33:2d:23:7b:
        35:ed:7c:d0:85:77:cf:70:2c:7a:30:89:ba:20:32:3d:e7:58:
        e1:d3:72:9b:35:c6:37:97:8e:a1:bf:d0:86:3d:37:86:a2:4f:
        72:ea:53:b8:d2:be:36:c1:b7:22:7b:65:30:01:80:9d:7c:d0:
        65:26:c3:a6:48:9e:48:3d:db:8d:22:0e:ea:a9:a4:11:6a:e4:
        bd:1e:25:c0:66:f1:b2:9a:a1:e2:c8:93:f4:96:6f:27:a9:92:
        2e:53:84:e6:25:d7:70:ff:5e:20:8c:59:aa:5a:52:1c:3b:91:
        6b:6a:99:81:a9:d1:01:9e:8e:b6:c3:7a:d7:b0:a2:2b:ef:56:
        32:75:f9:36:66:bb:90:aa:3d:19:d1:76:70:19:0a:64:1c:b8:
        16:de:f5:64:34:21:73:58:2e:fc:39:1e:9f:ff:12:cd:e2:d9:
        ad:61:5d:71:de:93:73:f9:be:da:65:1c:71:9c:29:5a:c0:eb:
        95:e4:5e:60:c3:73:ac:48:42:17:44:ec:1a:c8:86:46:79:98:
        fb:3c:f5:04:25:58:db:34:9f:6f:9b:bc:35:52:b0:27:4e:ee:
        fc:78:40:61:19:2d:2a:33:64:da:48:bb:63:9d:c3:91:a9:8c:
        1a:f3:c2:6c:91:a8:d1:ba:1b:2e:22:9a:94:25:61:0d:a4:b2:
        8c:b6:1a:f8:32:1d:6a:f6:00:6e:6a:fe:51:28:ae:16:98:5f:
        10:2c:38:b1:1e:94:3c:d0:6a:f1:36:1e:18:09:67:fe:a1:32:
        30:db:bf:fa:9a:4b:eb:d0:69:2f:df:d2:58:41:f1:d8:cd:e1:
        13:bf:a3:b6:77:f2:f1:72:ad:b7:49:f4:96:61:bf:7f:d7:47:
        5b:c7:42:e5:aa:d0:bd:a0:30:fd:d4:36:17:79:5b:ed:96:a8:
        2e:b3:51:9d:e7:48:af:23:df:0a:9b:b6:8e:c4:9d:0a:8e:39:
        34:a7:82:c2:87:01:dc:97:b8:e3:ab:e5:00:c9:0d:dd:a5:c5:
        ed:39:4a:20:01:b8:38:df:01:02:e7:29:6f:89:33:98:5b:6a:
        93:0d:a8:20:72:32:c4:e1:57:1a:f4:81:29:5d:9c:a6:b6:1d:
        45:da:d0:2c:7a:d2:79:a4:1c:c6:63:b3:d0:ad:b3:53:28:2e:
        55:45:bb:de:46:2d:2e:bd:18:94:72:12:d1:8f:d3:20:31:35:
        76:ae:e7:ed:ff:20:42:f4:01:d0:4c:59:67:32:c5:2b:a9:9d:
        6b:94:22:c2:4a:af:68:80:c5:f7:d2:74:33:a6:25:ee:a4:40:
        dd:0e:94:07:c3:18:8e:bd
-----BEGIN CERTIFICATE-----
MIIEiDCCAnCgAwIBAgIUYgRi2P6HLK3ItHv9DoR1uXGi+9YwDQYJKoZIhvcNAQEL
BQAwOzELMAkGA1UEBhMCQlIxGTAXBgNVBAgMEERpc3RyaXRvIEZlZGVyYWwxETAP
BgNVBAcMCEJyYXNpbGlhMB4XDTI1MTIzMDIxMDEzOFoXDTI2MTIzMDIxMDEzOFow
GzEZMBcGA1UEAwwQdGVzdGUuYnJiLmNvbS5icjCCASIwDQYJKoZIhvcNAQEBBQAD
ggEPADCCAQoCggEBAI6Y35uyKYgqyCaBB3qAX1a5RvlSyRI8OC9TkKH3d53QbOOc
QbvCt8Ifjs5OmDdjP3i8bokTxoD+2taPqr86IZ2h1p9zj7hUdbJFcSFTyIZAIVg8
BWcFOdcoOQgLKKr6BL8xck/haRAOKn50TfOM/Gw9sQiS+QcXoE0DCOxBjd5GSyfo
kTuhlvKalJZg33w4QjqTgFRjynslLoEuknUiUfynoItRxzCVGr3NzabdJSq5mBUQ
mDiYJn0wHbaAOWsbJfZJd+pig2fat+3kUTMWjf4Mkj5Ecn43khJn0atjLfWeXa/s
SzNuA0KVZhcvjGnu8Fnj8/Ko7kb4/VZbgJ0R07kCAwEAAaOBozCBoDAJBgNVHRME
AjAAMB0GA1UdDgQWBBTjq5HKRyBwk1vTyNNk5ujHHN9fcDALBgNVHQ8EBAMCBeAw
EwYDVR0lBAwwCgYIKwYBBQUHAwIwMQYDVR0RBCowKIIQdGVzdGUuYnJiLmNvbS5i
coIUd3d3LnRlc3RlLmJyYi5jb20uYnIwHwYDVR0jBBgwFoAUzsPmxP3EOKhFuLQu
iJu6lGnQvIIwDQYJKoZIhvcNAQELBQADggIBAJK5HENbzRzNJQjsbf6+My0jezXt
fNCFd89wLHowibogMj3nWOHTcps1xjeXjqG/0IY9N4aiT3LqU7jSvjbBtyJ7ZTAB
gJ180GUmw6ZInkg9240iDuqppBFq5L0eJcBm8bKaoeLIk/SWbyepki5ThOYl13D/
XiCMWapaUhw7kWtqmYGp0QGejrbDetewoivvVjJ1+TZmu5CqPRnRdnAZCmQcuBbe
9WQ0IXNYLvw5Hp//Es3i2a1hXXHek3P5vtplHHGcKVrA65XkXmDDc6xIQhdE7BrI
hkZ5mPs89QQlWNs0n2+bvDVSsCdO7vx4QGEZLSozZNpIu2Odw5GpjBrzwmyRqNG6
Gy4impQlYQ2ksoy2GvgyHWr2AG5q/lEorhaYXxAsOLEelDzQavE2HhgJZ/6hMjDb
v/qaS+vQaS/f0lhB8djN4RO/o7Z38vFyrbdJ9JZhv3/XR1vHQuWq0L2gMP3UNhd5
W+2WqC6zUZ3nSK8j3wqbto7EnQqOOTSngsKHAdyXuOOr5QDJDd2lxe05SiABuDjf
AQLnKW+JM5hbapMNqCByMsThVxr0gSldnKa2HUXa0Cx60nmkHMZjs9Cts1MoLlVF
u95GLS69GJRyEtGP0yAxNXau5+3/IEL0AdBMWWcyxSupnWuUIsJKr2iAxffSdDOm
Je6kQN0OlAfDGI69
-----END CERTIFICATE-----
